target datalayout = "e-m:e-p270:32:32-p271:32:32-p272:64:64-i64:64-i128:128-f80:128-n8:16:32:64-S128"
target triple = "x86_64-pc-linux-gnu"

@_ZTV12MyToolButton = external unnamed_addr constant { [57 x ptr], [10 x ptr] }, align 8
@_ZN27DelayedToolButtonPopUpStyleC1Ei = unnamed_addr alias void (ptr, i32), ptr @_ZN27DelayedToolButtonPopUpStyleC2Ei

; Function Attrs: mustprogress uwtable
define void @_ZN12MyToolButtonC2EP7QActioniP7QWidget(ptr noundef nonnull align 8 dereferenceable(48) %0, ptr noundef %1, i32 noundef %2, ptr noundef %3) unnamed_addr #2 align 2 personality ptr @__gxx_personality_v0 {
  %5 = alloca ptr, align 8
  %6 = alloca ptr, align 8
  %7 = alloca i32, align 4
  %8 = alloca ptr, align 8
  %9 = alloca ptr, align 8
  %10 = alloca i32, align 4
  %11 = alloca ptr, align 8
  store ptr %0, ptr %5, align 8
  store ptr %1, ptr %6, align 8
  store i32 %2, ptr %7, align 4
  store ptr %3, ptr %8, align 8
  %12 = load ptr, ptr %5, align 8
  %13 = load ptr, ptr %8, align 8
  call void @_ZN11QToolButtonC2EP7QWidget(ptr noundef nonnull align 8 dereferenceable(48) %12, ptr noundef %13)
  store ptr getelementptr inbounds ({ [57 x ptr], [10 x ptr] }, ptr @_ZTV12MyToolButton, i32 0, i32 0, i32 2), ptr %12, align 8
  %14 = getelementptr inbounds i8, ptr %12, i64 16
  store ptr getelementptr inbounds ({ [57 x ptr], [10 x ptr] }, ptr @_ZTV12MyToolButton, i32 0, i32 1, i32 2), ptr %14, align 8
  %15 = load i32, ptr %7, align 4
  %16 = icmp ne i32 %15, 0
  br i1 %16, label %17, label %33

17:                                               ; preds = %4
  invoke void @_ZN11QToolButton12setPopupModeENS_19ToolButtonPopupModeE(ptr noundef nonnull align 8 dereferenceable(48) %12, i32 noundef 0)
          to label %18 unwind label %25

18:                                               ; preds = %17
  %19 = invoke noalias noundef nonnull ptr @_Znwm(i64 noundef 24) #11
          to label %20 unwind label %25

20:                                               ; preds = %18
  %21 = load i32, ptr %7, align 4
  invoke void @_ZN27DelayedToolButtonPopUpStyleC1Ei(ptr noundef nonnull align 8 dereferenceable(20) %19, i32 noundef %21)
          to label %22 unwind label %29

22:                                               ; preds = %20
  store ptr %19, ptr %11, align 8
  %23 = load ptr, ptr %11, align 8
  invoke void @_ZN7QWidget8setStyleEP6QStyle(ptr noundef nonnull align 8 dereferenceable(48) %12, ptr noundef %23)
          to label %24 unwind label %25

24:                                               ; preds = %22
  br label %35

25:                                               ; preds = %35, %33, %22, %18, %17
  %26 = landingpad { ptr, i32 }
          cleanup
  %27 = extractvalue { ptr, i32 } %26, 0
  store ptr %27, ptr %9, align 8
  %28 = extractvalue { ptr, i32 } %26, 1
  store i32 %28, ptr %10, align 4
  br label %38

29:                                               ; preds = %20
  %30 = landingpad { ptr, i32 }
          cleanup
  %31 = extractvalue { ptr, i32 } %30, 0
  store ptr %31, ptr %9, align 8
  %32 = extractvalue { ptr, i32 } %30, 1
  store i32 %32, ptr %10, align 4
  call void @_ZdlPv(ptr noundef %19) #10
  br label %38

33:                                               ; preds = %4
  invoke void @_ZN11QToolButton12setPopupModeENS_19ToolButtonPopupModeE(ptr noundef nonnull align 8 dereferenceable(48) %12, i32 noundef 2)
          to label %34 unwind label %25

34:                                               ; preds = %33
  br label %35

35:                                               ; preds = %34, %24
  %36 = load ptr, ptr %6, align 8
  invoke void @_ZN11QToolButton16setDefaultActionEP7QAction(ptr noundef nonnull align 8 dereferenceable(48) %12, ptr noundef %36)
          to label %37 unwind label %25

37:                                               ; preds = %35
  ret void

38:                                               ; preds = %29, %25
  call void @_ZN11QToolButtonD2Ev(ptr noundef nonnull align 8 dereferenceable(48) %12) #9
  br label %39

39:                                               ; preds = %38
  %40 = load ptr, ptr %9, align 8
  %41 = load i32, ptr %10, align 4
  %42 = insertvalue { ptr, i32 } poison, ptr %40, 0
  %43 = insertvalue { ptr, i32 } %42, i32 %41, 1
  resume { ptr, i32 } %43
}