; Function Attrs: mustprogress uwtable
define void @_ZN12MyToolButtonC2EP7QActioniP7QWidget(ptr noundef nonnull align 8 dereferenceable(48) %0, ptr noundef %1, i32 noundef %2, ptr noundef %3) unnamed_addr #2 align 2 personality ptr @__gxx_personality_v0 {
  tail call void @_ZN11QToolButtonC2EP7QWidget(ptr noundef nonnull align 8 dereferenceable(48) %0, ptr noundef %3)
  store ptr getelementptr inbounds ({ [57 x ptr], [10 x ptr] }, ptr @_ZTV12MyToolButton, i64 0, i32 0, i64 2), ptr %0, align 8
  %5 = getelementptr inbounds i8, ptr %0, i64 16
  store ptr getelementptr inbounds ({ [57 x ptr], [10 x ptr] }, ptr @_ZTV12MyToolButton, i64 0, i32 1, i64 2), ptr %5, align 8
  %.not = icmp eq i32 %2, 0
  br i1 %.not, label %15, label %6

6:                                                ; preds = %4
  invoke void @_ZN11QToolButton12setPopupModeENS_19ToolButtonPopupModeE(ptr noundef nonnull align 8 dereferenceable(48) %0, i32 noundef 0)
          to label %7 unwind label %11

7:                                                ; preds = %6
  %8 = invoke noalias noundef nonnull dereferenceable(24) ptr @_Znwm(i64 noundef 24) #13
          to label %9 unwind label %11

9:                                                ; preds = %7
  invoke void @_ZN27DelayedToolButtonPopUpStyleC1Ei(ptr noundef nonnull align 8 dereferenceable(20) %8, i32 noundef %2)
          to label %10 unwind label %13

10:                                               ; preds = %9
  invoke void @_ZN7QWidget8setStyleEP6QStyle(ptr noundef nonnull align 8 dereferenceable(48) %0, ptr noundef nonnull %8)
          to label %16 unwind label %11

11:                                               ; preds = %16, %15, %10, %7, %6
  %12 = landingpad { ptr, i32 }
          cleanup
  br label %18

13:                                               ; preds = %9
  %14 = landingpad { ptr, i32 }
          cleanup
  tail call void @_ZdlPv(ptr noundef nonnull %8) #12
  br label %18

15:                                               ; preds = %4
  invoke void @_ZN11QToolButton12setPopupModeENS_19ToolButtonPopupModeE(ptr noundef nonnull align 8 dereferenceable(48) %0, i32 noundef 2)
          to label %16 unwind label %11

16:                                               ; preds = %15, %10
  invoke void @_ZN11QToolButton16setDefaultActionEP7QAction(ptr noundef nonnull align 8 dereferenceable(48) %0, ptr noundef %1)
          to label %17 unwind label %11

17:                                               ; preds = %16
  ret void

18:                                               ; preds = %13, %11
  %.pn = phi { ptr, i32 } [ %12, %11 ], [ %14, %13 ]
  tail call void @_ZN11QToolButtonD2Ev(ptr noundef nonnull align 8 dereferenceable(48) %0) #11
  resume { ptr, i32 } %.pn
}